target datalayout = "e-m:e-p270:32:32-p271:32:32-p272:64:64-i64:64-i128:128-f80:128-n8:16:32:64-S128"
target triple = "x86_64-unknown-linux-gnu"

%"struct.std::_Vector_base.17" = type { %"struct.std::_Vector_base<const char *, std::allocator<const char *>>::_Vector_impl" }
%"struct.std::_Vector_base<const char *, std::allocator<const char *>>::_Vector_impl" = type { %"struct.std::_Vector_base<const char *, std::allocator<const char *>>::_Vector_impl_data" }
%"struct.std::_Vector_base<const char *, std::allocator<const char *>>::_Vector_impl_data" = type { ptr, ptr, ptr }
%"class.std::__cxx11::basic_string" = type { %"struct.std::__cxx11::basic_string<char>::_Alloc_hider", i64, %union.anon }
%"struct.std::__cxx11::basic_string<char>::_Alloc_hider" = type { ptr }
%union.anon = type { i64, [8 x i8] }
%"class.std::__shared_count" = type { ptr }
%"class.std::__shared_ptr.22" = type { ptr, %"class.std::__shared_count" }
%"class.OpenColorIO_v2_4dev::XmlReaderElement" = type { ptr, %"class.std::__cxx11::basic_string", i32, %"class.std::__cxx11::basic_string" }

; Function Attrs: mustprogress nounwind uwtable
define linkonce_odr hidden noundef ptr @_ZNKSt12__shared_ptrIN19OpenColorIO_v2_4dev16XmlReaderElementELN9__gnu_cxx12_Lock_policyE2EE3getEv(ptr noundef nonnull align 8 dereferenceable(16) %this) #4 comdat align 2 {
entry:
  %this.addr = alloca ptr, align 8
  store ptr %this, ptr %this.addr, align 8
  %this1 = load ptr, ptr %this.addr, align 8
  %_M_ptr = getelementptr inbounds %"class.std::__shared_ptr.22", ptr %this1, i32 0, i32 0
  %0 = load ptr, ptr %_M_ptr, align 8
  ret ptr %0
}

; Function Attrs: mustprogress nounwind uwtable
define linkonce_odr hidden noundef ptr @_ZNKSt19__shared_ptr_accessIN19OpenColorIO_v2_4dev16XmlReaderElementELN9__gnu_cxx12_Lock_policyE2ELb0ELb0EE6_M_getEv(ptr noundef nonnull align 1 dereferenceable(1) %this) #4 comdat align 2 {
entry:
  %this.addr = alloca ptr, align 8
  store ptr %this, ptr %this.addr, align 8
  %this1 = load ptr, ptr %this.addr, align 8
  %call = call noundef ptr @_ZNKSt12__shared_ptrIN19OpenColorIO_v2_4dev16XmlReaderElementELN9__gnu_cxx12_Lock_policyE2EE3getEv(ptr noundef nonnull align 8 dereferenceable(16) %this1) #3
  ret ptr %call
}

; Function Attrs: mustprogress nounwind uwtable
define linkonce_odr hidden noundef nonnull align 8 dereferenceable(8) ptr @_ZNKSt6vectorIPKcSaIS1_EEixEm(ptr noundef nonnull align 8 dereferenceable(24) %this, i64 noundef %__n) #4 comdat align 2 {
entry:
  %this.addr = alloca ptr, align 8
  %__n.addr = alloca i64, align 8
  store ptr %this, ptr %this.addr, align 8
  store i64 %__n, ptr %__n.addr, align 8
  %this1 = load ptr, ptr %this.addr, align 8
  %_M_impl = getelementptr inbounds %"struct.std::_Vector_base.17", ptr %this1, i32 0, i32 0
  %_M_start = getelementptr inbounds %"struct.std::_Vector_base<const char *, std::allocator<const char *>>::_Vector_impl_data", ptr %_M_impl, i32 0, i32 0
  %0 = load ptr, ptr %_M_start, align 8
  %1 = load i64, ptr %__n.addr, align 8
  %add.ptr = getelementptr inbounds ptr, ptr %0, i64 %1
  ret ptr %add.ptr
}

; Function Attrs: mustprogress nounwind uwtable
define linkonce_odr hidden noundef nonnull align 8 dereferenceable(32) ptr @_ZNK19OpenColorIO_v2_4dev16XmlReaderElement7getNameB5cxx11Ev(ptr noundef nonnull align 8 dereferenceable(80) %this) #4 comdat align 2 {
entry:
  %this.addr = alloca ptr, align 8
  store ptr %this, ptr %this.addr, align 8
  %this1 = load ptr, ptr %this.addr, align 8
  %m_name = getelementptr inbounds %"class.OpenColorIO_v2_4dev::XmlReaderElement", ptr %this1, i32 0, i32 1
  ret ptr %m_name
}

; Function Attrs: mustprogress nounwind uwtable
define linkonce_odr hidden noundef ptr @_ZNKSt19__shared_ptr_accessIN19OpenColorIO_v2_4dev16XmlReaderElementELN9__gnu_cxx12_Lock_policyE2ELb0ELb0EEptEv(ptr noundef nonnull align 1 dereferenceable(1) %this) #4 comdat align 2 {
entry:
  %this.addr = alloca ptr, align 8
  store ptr %this, ptr %this.addr, align 8
  %this1 = load ptr, ptr %this.addr, align 8
  %call = call noundef ptr @_ZNKSt19__shared_ptr_accessIN19OpenColorIO_v2_4dev16XmlReaderElementELN9__gnu_cxx12_Lock_policyE2ELb0ELb0EE6_M_getEv(ptr noundef nonnull align 1 dereferenceable(1) %this1) #3
  ret ptr %call
}

; Function Attrs: mustprogress nounwind uwtable
define linkonce_odr hidden noundef i64 @_ZNKSt6vectorIPKcSaIS1_EE4sizeEv(ptr noundef nonnull align 8 dereferenceable(24) %this) #4 comdat align 2 {
entry:
  %this.addr = alloca ptr, align 8
  store ptr %this, ptr %this.addr, align 8
  %this1 = load ptr, ptr %this.addr, align 8
  %_M_impl = getelementptr inbounds %"struct.std::_Vector_base.17", ptr %this1, i32 0, i32 0
  %_M_finish = getelementptr inbounds %"struct.std::_Vector_base<const char *, std::allocator<const char *>>::_Vector_impl_data", ptr %_M_impl, i32 0, i32 1
  %0 = load ptr, ptr %_M_finish, align 8
  %_M_impl2 = getelementptr inbounds %"struct.std::_Vector_base.17", ptr %this1, i32 0, i32 0
  %_M_start = getelementptr inbounds %"struct.std::_Vector_base<const char *, std::allocator<const char *>>::_Vector_impl_data", ptr %_M_impl2, i32 0, i32 0
  %1 = load ptr, ptr %_M_start, align 8
  %sub.ptr.lhs.cast = ptrtoint ptr %0 to i64
  %sub.ptr.rhs.cast = ptrtoint ptr %1 to i64
  %sub.ptr.sub = sub i64 %sub.ptr.lhs.cast, %sub.ptr.rhs.cast
  %sub.ptr.div = sdiv exact i64 %sub.ptr.sub, 8
  ret i64 %sub.ptr.div
}

; Function Attrs: mustprogress nounwind uwtable
define linkonce_odr hidden noundef zeroext i1 @_ZNKSt12__shared_ptrIN19OpenColorIO_v2_4dev16XmlReaderElementELN9__gnu_cxx12_Lock_policyE2EEcvbEv(ptr noundef nonnull align 8 dereferenceable(16) %this) #4 comdat align 2 {
entry:
  %this.addr = alloca ptr, align 8
  store ptr %this, ptr %this.addr, align 8
  %this1 = load ptr, ptr %this.addr, align 8
  %_M_ptr = getelementptr inbounds %"class.std::__shared_ptr.22", ptr %this1, i32 0, i32 0
  %0 = load ptr, ptr %_M_ptr, align 8
  %cmp = icmp ne ptr %0, null
  ret i1 %cmp
}

; Function Attrs: mustprogress uwtable
define internal noundef zeroext i1 @_ZN19OpenColorIO_v2_4dev12_GLOBAL__N_115XMLParserHelper16SupportedElementEPKcRSt10shared_ptrINS_16XmlReaderElementEES3_RKSt6vectorIS3_SaIS3_EERb(ptr noundef %name, ptr noundef nonnull align 8 dereferenceable(16) %parent, ptr noundef %tag, ptr noundef nonnull align 8 dereferenceable(24) %parentNames, ptr noundef nonnull align 1 dereferenceable(1) %recognizedName) #5 align 2 {
entry:
  %retval = alloca i1, align 1
  %name.addr = alloca ptr, align 8
  %parent.addr = alloca ptr, align 8
  %tag.addr = alloca ptr, align 8
  %parentNames.addr = alloca ptr, align 8
  %recognizedName.addr = alloca ptr, align 8
  %numParents = alloca i64, align 8
  %i = alloca i64, align 8
  store ptr %name, ptr %name.addr, align 8
  store ptr %parent, ptr %parent.addr, align 8
  store ptr %tag, ptr %tag.addr, align 8
  store ptr %parentNames, ptr %parentNames.addr, align 8
  store ptr %recognizedName, ptr %recognizedName.addr, align 8
  %0 = load ptr, ptr %name.addr, align 8
  %tobool = icmp ne ptr %0, null
  br i1 %tobool, label %land.lhs.true, label %if.end21

land.lhs.true:                                    ; preds = %entry
  %1 = load ptr, ptr %name.addr, align 8
  %2 = load i8, ptr %1, align 1
  %tobool1 = icmp ne i8 %2, 0
  br i1 %tobool1, label %land.lhs.true2, label %if.end21

land.lhs.true2:                                   ; preds = %land.lhs.true
  %3 = load ptr, ptr %tag.addr, align 8
  %tobool3 = icmp ne ptr %3, null
  br i1 %tobool3, label %land.lhs.true4, label %if.end21

land.lhs.true4:                                   ; preds = %land.lhs.true2
  %4 = load ptr, ptr %tag.addr, align 8
  %5 = load i8, ptr %4, align 1
  %tobool5 = icmp ne i8 %5, 0
  br i1 %tobool5, label %land.lhs.true6, label %if.end21

land.lhs.true6:                                   ; preds = %land.lhs.true4
  %6 = load ptr, ptr %parent.addr, align 8
  %call = call noundef zeroext i1 @_ZNKSt12__shared_ptrIN19OpenColorIO_v2_4dev16XmlReaderElementELN9__gnu_cxx12_Lock_policyE2EEcvbEv(ptr noundef nonnull align 8 dereferenceable(16) %6) #3
  br i1 %call, label %if.then, label %if.end21

if.then:                                          ; preds = %land.lhs.true6
  %7 = load ptr, ptr %name.addr, align 8
  %8 = load ptr, ptr %tag.addr, align 8
  %call7 = call noundef i32 @_ZN19OpenColorIO_v2_4dev8Platform10StrcasecmpEPKcS2_(ptr noundef %7, ptr noundef %8)
  %cmp = icmp eq i32 0, %call7
  br i1 %cmp, label %if.then8, label %if.end20

if.then8:                                         ; preds = %if.then
  %9 = load ptr, ptr %recognizedName.addr, align 8
  %10 = load i8, ptr %9, align 1
  %tobool9 = trunc i8 %10 to i1
  %conv = zext i1 %tobool9 to i32
  %or = or i32 %conv, 1
  %tobool10 = icmp ne i32 %or, 0
  %frombool = zext i1 %tobool10 to i8
  store i8 %frombool, ptr %9, align 1
  %11 = load ptr, ptr %parentNames.addr, align 8
  %call11 = call noundef i64 @_ZNKSt6vectorIPKcSaIS1_EE4sizeEv(ptr noundef nonnull align 8 dereferenceable(24) %11) #3
  store i64 %call11, ptr %numParents, align 8
  store i64 0, ptr %i, align 8
  br label %for.cond

for.cond:                                         ; preds = %for.inc, %if.then8
  %12 = load i64, ptr %i, align 8
  %13 = load i64, ptr %numParents, align 8
  %cmp12 = icmp ult i64 %12, %13
  br i1 %cmp12, label %for.body, label %for.end

for.body:                                         ; preds = %for.cond
  %14 = load ptr, ptr %parent.addr, align 8
  %call13 = call noundef ptr @_ZNKSt19__shared_ptr_accessIN19OpenColorIO_v2_4dev16XmlReaderElementELN9__gnu_cxx12_Lock_policyE2ELb0ELb0EEptEv(ptr noundef nonnull align 1 dereferenceable(1) %14) #3
  %call14 = call noundef nonnull align 8 dereferenceable(32) ptr @_ZNK19OpenColorIO_v2_4dev16XmlReaderElement7getNameB5cxx11Ev(ptr noundef nonnull align 8 dereferenceable(80) %call13)
  %call15 = call noundef ptr @_ZNKSt7__cxx1112basic_stringIcSt11char_traitsIcESaIcEE5c_strEv(ptr noundef nonnull align 8 dereferenceable(32) %call14) #3
  %15 = load ptr, ptr %parentNames.addr, align 8
  %16 = load i64, ptr %i, align 8
  %call16 = call noundef nonnull align 8 dereferenceable(8) ptr @_ZNKSt6vectorIPKcSaIS1_EEixEm(ptr noundef nonnull align 8 dereferenceable(24) %15, i64 noundef %16) #3
  %17 = load ptr, ptr %call16, align 8
  %call17 = call noundef i32 @_ZN19OpenColorIO_v2_4dev8Platform10StrcasecmpEPKcS2_(ptr noundef %call15, ptr noundef %17)
  %cmp18 = icmp eq i32 0, %call17
  br i1 %cmp18, label %if.then19, label %if.end

if.then19:                                        ; preds = %for.body
  store i1 true, ptr %retval, align 1
  br label %return

if.end:                                           ; preds = %for.body
  br label %for.inc

for.inc:                                          ; preds = %if.end
  %18 = load i64, ptr %i, align 8
  %inc = add i64 %18, 1
  store i64 %inc, ptr %i, align 8
  br label %for.cond, !llvm.loop !12

for.end:                                          ; preds = %for.cond
  br label %if.end20

if.end20:                                         ; preds = %for.end, %if.then
  br label %if.end21

if.end21:                                         ; preds = %if.end20, %land.lhs.true6, %land.lhs.true4, %land.lhs.true2, %land.lhs.true, %entry
  store i1 false, ptr %retval, align 1
  br label %return

return:                                           ; preds = %if.end21, %if.then19
  %19 = load i1, ptr %retval, align 1
  ret i1 %19
}