; Function Attrs: mustprogress uwtable
define internal fastcc noundef zeroext i1 @_ZN19OpenColorIO_v2_4dev12_GLOBAL__N_115XMLParserHelper16SupportedElementEPKcRSt10shared_ptrINS_16XmlReaderElementEES3_RKSt6vectorIS3_SaIS3_EERb(ptr noundef %name, ptr nocapture noundef nonnull readonly align 8 dereferenceable(16) %parent, ptr noundef %tag, ptr nocapture noundef nonnull writeonly align 1 dereferenceable(1) %recognizedName) unnamed_addr #4 align 2 {
entry:
  %tobool.not = icmp eq ptr %name, null
  br i1 %tobool.not, label %return, label %land.lhs.true

land.lhs.true:                                    ; preds = %entry
  %0 = load i8, ptr %name, align 1
  %tobool1 = icmp ne i8 %0, 0
  %tobool3 = icmp ne ptr %tag, null
  %or.cond = and i1 %tobool3, %tobool1
  br i1 %or.cond, label %land.lhs.true4, label %return

land.lhs.true4:                                   ; preds = %land.lhs.true
  %1 = load i8, ptr %tag, align 1
  %tobool5.not = icmp ne i8 %1, 0
  %2 = load ptr, ptr %parent, align 8
  %cmp.i = icmp ne ptr %2, null
  %or.cond1 = select i1 %tobool5.not, i1 %cmp.i, i1 false
  br i1 %or.cond1, label %if.then, label %return

if.then:                                          ; preds = %land.lhs.true4
  %call7 = tail call noundef i32 @_ZN19OpenColorIO_v2_4dev8Platform10StrcasecmpEPKcS2_(ptr noundef nonnull %name, ptr noundef nonnull %tag)
  %cmp = icmp eq i32 %call7, 0
  br i1 %cmp, label %if.then8, label %return

if.then8:                                         ; preds = %if.then
  store i8 1, ptr %recognizedName, align 1
  %3 = load ptr, ptr getelementptr inbounds (%"class.std::vector.16", ptr @_ZZN19OpenColorIO_v2_4dev12_GLOBAL__N_115XMLParserHelper19StartElementHandlerEPvPKcPS4_E26gradingRGBCurveSubElements, i64 0, i32 0, i32 0, i32 0, i32 1), align 8
  %4 = load ptr, ptr @_ZZN19OpenColorIO_v2_4dev12_GLOBAL__N_115XMLParserHelper19StartElementHandlerEPvPKcPS4_E26gradingRGBCurveSubElements, align 8
  %cmp122.not = icmp eq ptr %3, %4
  br i1 %cmp122.not, label %return, label %for.body.preheader

for.body.preheader:                               ; preds = %if.then8
  %sub.ptr.lhs.cast.i = ptrtoint ptr %3 to i64
  %sub.ptr.rhs.cast.i = ptrtoint ptr %4 to i64
  %sub.ptr.sub.i = sub i64 %sub.ptr.lhs.cast.i, %sub.ptr.rhs.cast.i
  %sub.ptr.div.i = ashr exact i64 %sub.ptr.sub.i, 3
  %umax = tail call i64 @llvm.umax.i64(i64 %sub.ptr.div.i, i64 1)
  br label %for.body

for.body:                                         ; preds = %for.body, %for.body.preheader
  %i.03 = phi i64 [ 0, %for.body.preheader ], [ %inc, %for.body ]
  %5 = load ptr, ptr %parent, align 8
  %m_name.i = getelementptr inbounds i8, ptr %5, i64 8
  %call15 = tail call noundef ptr @_ZNKSt7__cxx1112basic_stringIcSt11char_traitsIcESaIcEE5c_strEv(ptr noundef nonnull align 8 dereferenceable(32) %m_name.i) #20
  %6 = load ptr, ptr @_ZZN19OpenColorIO_v2_4dev12_GLOBAL__N_115XMLParserHelper19StartElementHandlerEPvPKcPS4_E26gradingRGBCurveSubElements, align 8
  %add.ptr.i = getelementptr inbounds ptr, ptr %6, i64 %i.03
  %7 = load ptr, ptr %add.ptr.i, align 8
  %call17 = tail call noundef i32 @_ZN19OpenColorIO_v2_4dev8Platform10StrcasecmpEPKcS2_(ptr noundef %call15, ptr noundef %7)
  %cmp18 = icmp eq i32 %call17, 0
  %inc = add nuw i64 %i.03, 1
  %exitcond.not = icmp eq i64 %inc, %umax
  %or.cond5 = select i1 %cmp18, i1 true, i1 %exitcond.not
  br i1 %or.cond5, label %return, label %for.body, !llvm.loop !83

return:                                           ; preds = %for.body, %if.then8, %entry, %land.lhs.true, %land.lhs.true4, %if.then
  %retval.0 = phi i1 [ false, %if.then ], [ false, %land.lhs.true4 ], [ false, %land.lhs.true ], [ false, %entry ], [ false, %if.then8 ], [ %cmp18, %for.body ]
  ret i1 %retval.0
}